target datalayout = "e-m:e-p270:32:32-p271:32:32-p272:64:64-i64:64-i128:128-f80:128-n8:16:32:64-S128"
target triple = "x86_64-pc-linux-gnu"

%struct.wl_list = type { ptr, ptr }
%struct.SDL_WaylandPenTool = type { i32, %struct.SDL_PenInfo, ptr, ptr, float, float, i8, [7 x float], i32, i32, [3 x i32], %struct.wl_list }
%struct.SDL_PenInfo = type { i32, float, i32, i32, i32 }
%union.anon.21 = type { double }

; Function Attrs: inlinehint nounwind uwtable
define internal double @wl_fixed_to_double(i32 noundef %0) #2 {
  %2 = alloca i32, align 4
  %3 = alloca %union.anon.21, align 8
  store i32 %0, ptr %2, align 4
  call void @llvm.lifetime.start.p0(i64 8, ptr %3) #10
  %4 = load i32, ptr %2, align 4
  %5 = sext i32 %4 to i64
  %6 = add nsw i64 4807592602218004480, %5
  store i64 %6, ptr %3, align 8
  %7 = load double, ptr %3, align 8
  %8 = fsub double %7, 0x42B8000000000000
  call void @llvm.lifetime.end.p0(i64 8, ptr %3) #10
  ret double %8
}

; Function Attrs: nounwind uwtable
define internal void @tablet_tool_handle_rotation(ptr noundef %0, ptr noundef %1, i32 noundef %2) #0 {
  %4 = alloca ptr, align 8
  %5 = alloca ptr, align 8
  %6 = alloca i32, align 4
  %7 = alloca ptr, align 8
  %8 = alloca float, align 4
  store ptr %0, ptr %4, align 8
  store ptr %1, ptr %5, align 8
  store i32 %2, ptr %6, align 4
  call void @llvm.lifetime.start.p0(i64 8, ptr %7) #10
  %9 = load ptr, ptr %4, align 8
  store ptr %9, ptr %7, align 8
  call void @llvm.lifetime.start.p0(i64 4, ptr %8) #10
  %10 = load i32, ptr %6, align 4
  %11 = call double @wl_fixed_to_double(i32 noundef %10)
  %12 = fptrunc double %11 to float
  store float %12, ptr %8, align 4
  %13 = load float, ptr %8, align 4
  %14 = fcmp ogt float %13, 1.800000e+02
  br i1 %14, label %15, label %18

15:                                               ; preds = %3
  %16 = load float, ptr %8, align 4
  %17 = fsub float %16, 3.600000e+02
  br label %20

18:                                               ; preds = %3
  %19 = load float, ptr %8, align 4
  br label %20

20:                                               ; preds = %18, %15
  %21 = phi float [ %17, %15 ], [ %19, %18 ]
  %22 = load ptr, ptr %7, align 8
  %23 = getelementptr inbounds nuw %struct.SDL_WaylandPenTool, ptr %22, i32 0, i32 7
  %24 = getelementptr inbounds [7 x float], ptr %23, i64 0, i64 4
  store float %21, ptr %24, align 4
  %25 = load ptr, ptr %7, align 8
  %26 = getelementptr inbounds nuw %struct.SDL_WaylandPenTool, ptr %25, i32 0, i32 8
  %27 = load i32, ptr %26, align 8
  %28 = or i32 %27, 16
  store i32 %28, ptr %26, align 8
  call void @llvm.lifetime.end.p0(i64 4, ptr %8) #10
  call void @llvm.lifetime.end.p0(i64 8, ptr %7) #10
  ret void
}