; Function Attrs: mustprogress nofree norecurse nosync nounwind willreturn memory(argmem: readwrite) uwtable
define internal void @tablet_tool_handle_rotation(ptr noundef captures(none) initializes((68, 72)) %0, ptr readnone captures(none) %1, i32 noundef %2) #8 {
  %4 = sext i32 %2 to i64
  %5 = add nsw i64 %4, 4807592602218004480
  %6 = bitcast i64 %5 to double
  %7 = fadd double %6, 0xC2B8000000000000
  %8 = fptrunc double %7 to float
  %9 = fcmp ogt float %8, 1.800000e+02
  %10 = fadd float %8, -3.600000e+02
  %11 = select i1 %9, float %10, float %8
  %12 = getelementptr inbounds nuw i8, ptr %0, i64 68
  store float %11, ptr %12, align 4
  %13 = getelementptr inbounds nuw i8, ptr %0, i64 80
  %14 = load i32, ptr %13, align 8
  %15 = or i32 %14, 16
  store i32 %15, ptr %13, align 8
  ret void
}